; Function Attrs: mustprogress nounwind uwtable
define hidden void @_ZN9ZUnmapper10run_threadEv(ptr noundef nonnull align 8 dereferenceable(1050) %0) unnamed_addr #0 align 2 {
  %2 = getelementptr inbounds i8, ptr %0, i64 928
  %3 = tail call i32 @pthread_mutex_lock(ptr noundef nonnull %2) #9
  %4 = getelementptr inbounds i8, ptr %0, i64 1049
  %5 = load i8, ptr %4, align 1
  %6 = trunc i8 %5 to i1
  br i1 %6, label %.loopexit, label %.lr.ph.i.lr.ph

.lr.ph.i.lr.ph:                                   ; preds = %1
  %7 = getelementptr inbounds i8, ptr %0, i64 1016
  %8 = getelementptr inbounds i8, ptr %0, i64 1032
  %9 = getelementptr inbounds i8, ptr %0, i64 1040
  br label %.lr.ph.i

.lr.ph.i:                                         ; preds = %.lr.ph.i.backedge, %.lr.ph.i.lr.ph
  %10 = load i64, ptr %8, align 8
  %11 = icmp eq i64 %10, 0
  %12 = load ptr, ptr %7, align 8
  %13 = ptrtoint ptr %12 to i64
  %14 = add i64 %13, -176
  %.not.i7.i = icmp eq i64 %14, 0
  %.not.i.i = select i1 %11, i1 true, i1 %.not.i7.i
  br i1 %.not.i.i, label %15, label %20

15:                                               ; preds = %.lr.ph.i
  %16 = tail call noundef i32 @_ZN15PlatformMonitor4waitEm(ptr noundef nonnull align 8 dereferenceable(88) %2, i64 noundef 0) #9
  %17 = load i8, ptr %4, align 1
  %18 = trunc i8 %17 to i1
  br i1 %18, label %.loopexit, label %.lr.ph.i.backedge

.lr.ph.i.backedge:                                ; preds = %15, %20
  br label %.lr.ph.i, !llvm.loop !8

.loopexit:                                        ; preds = %20, %15, %1
  %19 = tail call i32 @pthread_mutex_unlock(ptr noundef nonnull %2) #9
  ret void

20:                                               ; preds = %.lr.ph.i
  %21 = inttoptr i64 %14 to ptr
  %22 = getelementptr inbounds i8, ptr %21, i64 176
  %23 = load ptr, ptr %22, align 8
  %24 = getelementptr inbounds i8, ptr %21, i64 184
  %25 = load ptr, ptr %24, align 8
  %26 = load ptr, ptr %25, align 8
  store ptr %26, ptr %22, align 8
  %27 = getelementptr inbounds i8, ptr %23, i64 8
  %28 = load ptr, ptr %27, align 8
  store ptr %28, ptr %24, align 8
  store ptr %25, ptr %27, align 8
  store ptr %23, ptr %25, align 8
  %29 = load i64, ptr %8, align 8
  %30 = add i64 %29, -1
  store i64 %30, ptr %8, align 8
  %31 = getelementptr inbounds i8, ptr %21, i64 16
  %32 = getelementptr inbounds i8, ptr %21, i64 24
  %33 = load i64, ptr %32, align 8
  %34 = load i64, ptr %31, align 8
  %.neg.i = sub i64 %34, %33
  %35 = load i64, ptr %9, align 8
  %36 = add i64 %.neg.i, %35
  store i64 %36, ptr %9, align 8
  %37 = tail call i32 @pthread_mutex_unlock(ptr noundef nonnull %2) #9
  tail call void @_ZNK9ZUnmapper25do_unmap_and_destroy_pageEP5ZPage(ptr noundef nonnull align 8 dereferenceable(1050) %0, ptr noundef nonnull %21)
  %38 = tail call i32 @pthread_mutex_lock(ptr noundef nonnull %2) #9
  %39 = load i8, ptr %4, align 1
  %40 = trunc i8 %39 to i1
  br i1 %40, label %.loopexit, label %.lr.ph.i.backedge
}